; Function Attrs: mustprogress uwtable
define void @_ZN13duDisplayList6vertexEPKfj(ptr noundef nonnull align 8 dereferenceable(41) %0, ptr nocapture noundef readonly %1, i32 noundef %2) unnamed_addr #4 align 2 {
  %4 = load float, ptr %1, align 4
  %5 = getelementptr inbounds i8, ptr %1, i64 4
  %6 = load float, ptr %5, align 4
  %7 = getelementptr inbounds i8, ptr %1, i64 8
  %8 = load float, ptr %7, align 4
  %9 = load ptr, ptr %0, align 8
  %10 = getelementptr inbounds i8, ptr %9, i64 48
  %11 = load ptr, ptr %10, align 8
  tail call void %11(ptr noundef nonnull align 8 dereferenceable(41) %0, float noundef %4, float noundef %6, float noundef %8, i32 noundef %2)
  ret void
}